; Function Attrs: mustprogress uwtable
define noundef nonnull align 8 dereferenceable(72) ptr @_ZN6icu_758TimeZoneaSERKS0_(ptr noundef nonnull returned align 8 dereferenceable(72) %this, ptr noundef nonnull align 8 dereferenceable(72) %right) local_unnamed_addr #0 align 2 {
entry:
  %cmp.not = icmp eq ptr %this, %right
  br i1 %cmp.not, label %if.end, label %if.then

if.then:                                          ; preds = %entry
  %fID = getelementptr inbounds i8, ptr %right, i64 8
  %fID2 = getelementptr inbounds i8, ptr %this, i64 8
  %call = tail call noundef nonnull align 8 dereferenceable(64) ptr @_ZN6icu_7513UnicodeStringaSERKS0_(ptr noundef nonnull align 8 dereferenceable(64) %fID2, ptr noundef nonnull align 8 dereferenceable(64) %fID)
  br label %if.end

if.end:                                           ; preds = %if.then, %entry
  ret ptr %this
}